target datalayout = "e-m:e-p270:32:32-p271:32:32-p272:64:64-i64:64-i128:128-f80:128-n8:16:32:64-S128"
target triple = "x86_64-pc-linux-gnu"

%struct.List = type { i32, i32, i32, ptr, [0 x %union.ListCell] }
%union.ListCell = type { ptr }
%struct.RelOptInfo = type { i32, i32, ptr, double, i8, i8, i8, ptr, ptr, ptr, ptr, ptr, ptr, ptr, ptr, ptr, ptr, i32, i32, i32, i16, i16, ptr, ptr, ptr, ptr, ptr, ptr, ptr, ptr, i32, double, double, ptr, ptr, ptr, i32, i32, i32, i32, i8, ptr, ptr, ptr, ptr, ptr, %struct.QualCost, i32, ptr, i8, i8, ptr, ptr, ptr, ptr, i32, ptr, i8, ptr, ptr, ptr, ptr, ptr, ptr }
%struct.QualCost = type { double, double }
%struct.GeneratePruningStepsContext = type { ptr, i32, ptr, i8, i8, i8, i8, i32 }
%struct.PartitionPruneContext = type { i8, i32, i32, ptr, ptr, ptr, ptr, ptr, ptr, ptr, ptr }
%struct.PartitionSchemeData = type { i8, i16, ptr, ptr, ptr, ptr, ptr, ptr }
%struct.PartitionBoundInfoData = type { i32, i32, ptr, ptr, ptr, i32, ptr, i32, i32 }

@enable_partition_pruning = external global i8, align 1
@CurrentMemoryContext = external global ptr, align 8

; Function Attrs: inlinehint nounwind uwtable
define internal i32 @list_length(ptr noundef %0) #4 {
  %2 = alloca ptr, align 8
  store ptr %0, ptr %2, align 8
  %3 = load ptr, ptr %2, align 8
  %4 = icmp ne ptr %3, null
  br i1 %4, label %5, label %9

5:                                                ; preds = %1
  %6 = load ptr, ptr %2, align 8
  %7 = getelementptr inbounds nuw %struct.List, ptr %6, i32 0, i32 1
  %8 = load i32, ptr %7, align 4
  br label %10

9:                                                ; preds = %1
  br label %10

10:                                               ; preds = %9, %5
  %11 = phi i32 [ %8, %5 ], [ 0, %9 ]
  ret i32 %11
}

; Function Attrs: nounwind uwtable
define internal void @gen_partprune_steps(ptr noundef %0, ptr noundef %1, i32 noundef %2, ptr noundef %3) #0 {
  %5 = alloca ptr, align 8
  %6 = alloca ptr, align 8
  %7 = alloca i32, align 4
  %8 = alloca ptr, align 8
  store ptr %0, ptr %5, align 8
  store ptr %1, ptr %6, align 8
  store i32 %2, ptr %7, align 4
  store ptr %3, ptr %8, align 8
  %9 = load ptr, ptr %8, align 8
  call void @llvm.memset.p0.i64(ptr align 8 %9, i8 0, i64 32, i1 false)
  %10 = load ptr, ptr %5, align 8
  %11 = load ptr, ptr %8, align 8
  %12 = getelementptr inbounds nuw %struct.GeneratePruningStepsContext, ptr %11, i32 0, i32 0
  store ptr %10, ptr %12, align 8
  %13 = load i32, ptr %7, align 4
  %14 = load ptr, ptr %8, align 8
  %15 = getelementptr inbounds nuw %struct.GeneratePruningStepsContext, ptr %14, i32 0, i32 1
  store i32 %13, ptr %15, align 8
  %16 = load ptr, ptr %5, align 8
  %17 = getelementptr inbounds nuw %struct.RelOptInfo, ptr %16, i32 0, i32 56
  %18 = load ptr, ptr %17, align 8
  %19 = getelementptr inbounds nuw %struct.PartitionBoundInfoData, ptr %18, i32 0, i32 8
  %20 = load i32, ptr %19, align 4
  %21 = icmp ne i32 %20, -1
  br i1 %21, label %22, label %33

22:                                               ; preds = %4
  %23 = load ptr, ptr %5, align 8
  %24 = getelementptr inbounds nuw %struct.RelOptInfo, ptr %23, i32 0, i32 58
  %25 = load ptr, ptr %24, align 8
  %26 = icmp ne ptr %25, null
  br i1 %26, label %27, label %33

27:                                               ; preds = %22
  %28 = load ptr, ptr %6, align 8
  %29 = load ptr, ptr %5, align 8
  %30 = getelementptr inbounds nuw %struct.RelOptInfo, ptr %29, i32 0, i32 58
  %31 = load ptr, ptr %30, align 8
  %32 = call ptr @list_concat_copy(ptr noundef %28, ptr noundef %31)
  store ptr %32, ptr %6, align 8
  br label %33

33:                                               ; preds = %27, %22, %4
  %34 = load ptr, ptr %8, align 8
  %35 = load ptr, ptr %6, align 8
  %36 = call ptr @gen_partprune_steps_internal(ptr noundef %34, ptr noundef %35)
  ret void
}

; Function Attrs: nounwind uwtable
define dso_local ptr @prune_append_rel_partitions(ptr noundef %0) #0 {
  %2 = alloca ptr, align 8
  %3 = alloca ptr, align 8
  %4 = alloca ptr, align 8
  %5 = alloca ptr, align 8
  %6 = alloca %struct.GeneratePruningStepsContext, align 8
  %7 = alloca %struct.PartitionPruneContext, align 8
  %8 = alloca i32, align 4
  store ptr %0, ptr %3, align 8
  call void @llvm.lifetime.start.p0(i64 8, ptr %4) #6
  %9 = load ptr, ptr %3, align 8
  %10 = getelementptr inbounds nuw %struct.RelOptInfo, ptr %9, i32 0, i32 45
  %11 = load ptr, ptr %10, align 8
  store ptr %11, ptr %4, align 8
  call void @llvm.lifetime.start.p0(i64 8, ptr %5) #6
  call void @llvm.lifetime.start.p0(i64 32, ptr %6) #6
  call void @llvm.lifetime.start.p0(i64 80, ptr %7) #6
  %12 = load ptr, ptr %3, align 8
  %13 = getelementptr inbounds nuw %struct.RelOptInfo, ptr %12, i32 0, i32 55
  %14 = load i32, ptr %13, align 8
  %15 = icmp eq i32 %14, 0
  br i1 %15, label %16, label %17

16:                                               ; preds = %1
  store ptr null, ptr %2, align 8
  store i32 1, ptr %8, align 4
  br label %98

17:                                               ; preds = %1
  %18 = load i8, ptr @enable_partition_pruning, align 1, !range !9, !noundef !10
  %19 = trunc i8 %18 to i1
  br i1 %19, label %20, label %23

20:                                               ; preds = %17
  %21 = load ptr, ptr %4, align 8
  %22 = icmp eq ptr %21, null
  br i1 %22, label %23, label %29

23:                                               ; preds = %20, %17
  %24 = load ptr, ptr %3, align 8
  %25 = getelementptr inbounds nuw %struct.RelOptInfo, ptr %24, i32 0, i32 55
  %26 = load i32, ptr %25, align 8
  %27 = sub i32 %26, 1
  %28 = call ptr @bms_add_range(ptr noundef null, i32 noundef 0, i32 noundef %27)
  store ptr %28, ptr %2, align 8
  store i32 1, ptr %8, align 4
  br label %98

29:                                               ; preds = %20
  %30 = load ptr, ptr %3, align 8
  %31 = load ptr, ptr %4, align 8
  call void @gen_partprune_steps(ptr noundef %30, ptr noundef %31, i32 noundef 0, ptr noundef %6)
  %32 = getelementptr inbounds nuw %struct.GeneratePruningStepsContext, ptr %6, i32 0, i32 6
  %33 = load i8, ptr %32, align 1, !range !9, !noundef !10
  %34 = trunc i8 %33 to i1
  br i1 %34, label %35, label %36

35:                                               ; preds = %29
  store ptr null, ptr %2, align 8
  store i32 1, ptr %8, align 4
  br label %98

36:                                               ; preds = %29
  %37 = getelementptr inbounds nuw %struct.GeneratePruningStepsContext, ptr %6, i32 0, i32 2
  %38 = load ptr, ptr %37, align 8
  store ptr %38, ptr %5, align 8
  %39 = load ptr, ptr %5, align 8
  %40 = icmp eq ptr %39, null
  br i1 %40, label %41, label %47

41:                                               ; preds = %36
  %42 = load ptr, ptr %3, align 8
  %43 = getelementptr inbounds nuw %struct.RelOptInfo, ptr %42, i32 0, i32 55
  %44 = load i32, ptr %43, align 8
  %45 = sub i32 %44, 1
  %46 = call ptr @bms_add_range(ptr noundef null, i32 noundef 0, i32 noundef %45)
  store ptr %46, ptr %2, align 8
  store i32 1, ptr %8, align 4
  br label %98

47:                                               ; preds = %36
  %48 = load ptr, ptr %3, align 8
  %49 = getelementptr inbounds nuw %struct.RelOptInfo, ptr %48, i32 0, i32 54
  %50 = load ptr, ptr %49, align 8
  %51 = getelementptr inbounds nuw %struct.PartitionSchemeData, ptr %50, i32 0, i32 0
  %52 = load i8, ptr %51, align 8
  %53 = getelementptr inbounds nuw %struct.PartitionPruneContext, ptr %7, i32 0, i32 0
  store i8 %52, ptr %53, align 8
  %54 = load ptr, ptr %3, align 8
  %55 = getelementptr inbounds nuw %struct.RelOptInfo, ptr %54, i32 0, i32 54
  %56 = load ptr, ptr %55, align 8
  %57 = getelementptr inbounds nuw %struct.PartitionSchemeData, ptr %56, i32 0, i32 1
  %58 = load i16, ptr %57, align 2
  %59 = sext i16 %58 to i32
  %60 = getelementptr inbounds nuw %struct.PartitionPruneContext, ptr %7, i32 0, i32 1
  store i32 %59, ptr %60, align 4
  %61 = load ptr, ptr %3, align 8
  %62 = getelementptr inbounds nuw %struct.RelOptInfo, ptr %61, i32 0, i32 55
  %63 = load i32, ptr %62, align 8
  %64 = getelementptr inbounds nuw %struct.PartitionPruneContext, ptr %7, i32 0, i32 2
  store i32 %63, ptr %64, align 8
  %65 = load ptr, ptr %3, align 8
  %66 = getelementptr inbounds nuw %struct.RelOptInfo, ptr %65, i32 0, i32 56
  %67 = load ptr, ptr %66, align 8
  %68 = getelementptr inbounds nuw %struct.PartitionPruneContext, ptr %7, i32 0, i32 3
  store ptr %67, ptr %68, align 8
  %69 = load ptr, ptr %3, align 8
  %70 = getelementptr inbounds nuw %struct.RelOptInfo, ptr %69, i32 0, i32 54
  %71 = load ptr, ptr %70, align 8
  %72 = getelementptr inbounds nuw %struct.PartitionSchemeData, ptr %71, i32 0, i32 4
  %73 = load ptr, ptr %72, align 8
  %74 = getelementptr inbounds nuw %struct.PartitionPruneContext, ptr %7, i32 0, i32 4
  store ptr %73, ptr %74, align 8
  %75 = load ptr, ptr %3, align 8
  %76 = getelementptr inbounds nuw %struct.RelOptInfo, ptr %75, i32 0, i32 54
  %77 = load ptr, ptr %76, align 8
  %78 = getelementptr inbounds nuw %struct.PartitionSchemeData, ptr %77, i32 0, i32 7
  %79 = load ptr, ptr %78, align 8
  %80 = getelementptr inbounds nuw %struct.PartitionPruneContext, ptr %7, i32 0, i32 5
  store ptr %79, ptr %80, align 8
  %81 = getelementptr inbounds nuw %struct.PartitionPruneContext, ptr %7, i32 0, i32 1
  %82 = load i32, ptr %81, align 4
  %83 = sext i32 %82 to i64
  %84 = mul i64 48, %83
  %85 = load ptr, ptr %5, align 8
  %86 = call i32 @list_length(ptr noundef %85)
  %87 = sext i32 %86 to i64
  %88 = mul i64 %84, %87
  %89 = call ptr @palloc0(i64 noundef %88)
  %90 = getelementptr inbounds nuw %struct.PartitionPruneContext, ptr %7, i32 0, i32 6
  store ptr %89, ptr %90, align 8
  %91 = load ptr, ptr @CurrentMemoryContext, align 8
  %92 = getelementptr inbounds nuw %struct.PartitionPruneContext, ptr %7, i32 0, i32 7
  store ptr %91, ptr %92, align 8
  %93 = getelementptr inbounds nuw %struct.PartitionPruneContext, ptr %7, i32 0, i32 8
  store ptr null, ptr %93, align 8
  %94 = getelementptr inbounds nuw %struct.PartitionPruneContext, ptr %7, i32 0, i32 9
  store ptr null, ptr %94, align 8
  %95 = getelementptr inbounds nuw %struct.PartitionPruneContext, ptr %7, i32 0, i32 10
  store ptr null, ptr %95, align 8
  %96 = load ptr, ptr %5, align 8
  %97 = call ptr @get_matching_partitions(ptr noundef %7, ptr noundef %96)
  store ptr %97, ptr %2, align 8
  store i32 1, ptr %8, align 4
  br label %98

98:                                               ; preds = %47, %41, %35, %23, %16
  call void @llvm.lifetime.end.p0(i64 80, ptr %7) #6
  call void @llvm.lifetime.end.p0(i64 32, ptr %6) #6
  call void @llvm.lifetime.end.p0(i64 8, ptr %5) #6
  call void @llvm.lifetime.end.p0(i64 8, ptr %4) #6
  %99 = load ptr, ptr %2, align 8
  ret ptr %99
}