; Function Attrs: nounwind uwtable
define dso_local ptr @prune_append_rel_partitions(ptr noundef %0) local_unnamed_addr #0 {
  %2 = alloca %struct.GeneratePruningStepsContext, align 8
  %3 = alloca %struct.PartitionPruneContext, align 8
  %4 = getelementptr inbounds nuw i8, ptr %0, i64 296
  %5 = load ptr, ptr %4, align 8
  call void @llvm.lifetime.start.p0(i64 32, ptr nonnull %2) #6
  call void @llvm.lifetime.start.p0(i64 80, ptr nonnull %3) #6
  %6 = getelementptr inbounds nuw i8, ptr %0, i64 376
  %7 = load i32, ptr %6, align 8
  %8 = icmp eq i32 %7, 0
  br i1 %8, label %68, label %9

9:                                                ; preds = %1
  %10 = load i8, ptr @enable_partition_pruning, align 1, !range !6, !noundef !7
  %11 = trunc nuw i8 %10 to i1
  %12 = icmp ne ptr %5, null
  %or.cond.not = select i1 %11, i1 %12, i1 false
  br i1 %or.cond.not, label %16, label %13

13:                                               ; preds = %9
  %14 = add i32 %7, -1
  %15 = tail call ptr @bms_add_range(ptr noundef null, i32 noundef 0, i32 noundef %14) #6
  br label %68

16:                                               ; preds = %9
  %17 = getelementptr inbounds nuw i8, ptr %2, i64 8
  call void @llvm.memset.p0.i64(ptr noundef nonnull align 8 dereferenceable(32) %17, i8 0, i64 24, i1 false)
  store ptr %0, ptr %2, align 8
  %18 = getelementptr inbounds nuw i8, ptr %0, i64 384
  %19 = load ptr, ptr %18, align 8
  %20 = getelementptr inbounds nuw i8, ptr %19, i64 52
  %21 = load i32, ptr %20, align 4
  %.not.i = icmp eq i32 %21, -1
  br i1 %.not.i, label %gen_partprune_steps.exit, label %22

22:                                               ; preds = %16
  %23 = getelementptr inbounds nuw i8, ptr %0, i64 400
  %24 = load ptr, ptr %23, align 8
  %.not11.i = icmp eq ptr %24, null
  br i1 %.not11.i, label %gen_partprune_steps.exit, label %25

25:                                               ; preds = %22
  %26 = tail call ptr @list_concat_copy(ptr noundef nonnull %5, ptr noundef nonnull %24) #6
  br label %gen_partprune_steps.exit

gen_partprune_steps.exit:                         ; preds = %16, %22, %25
  %.0.i = phi ptr [ %26, %25 ], [ %5, %22 ], [ %5, %16 ]
  %27 = call fastcc ptr @gen_partprune_steps_internal(ptr noundef nonnull %2, ptr noundef %.0.i)
  %28 = getelementptr inbounds nuw i8, ptr %2, i64 27
  %29 = load i8, ptr %28, align 1, !range !6, !noundef !7
  %30 = trunc nuw i8 %29 to i1
  br i1 %30, label %68, label %31

31:                                               ; preds = %gen_partprune_steps.exit
  %32 = getelementptr inbounds nuw i8, ptr %2, i64 16
  %33 = load ptr, ptr %32, align 8
  %34 = icmp eq ptr %33, null
  br i1 %34, label %35, label %list_length.exit

35:                                               ; preds = %31
  %36 = load i32, ptr %6, align 8
  %37 = add i32 %36, -1
  %38 = call ptr @bms_add_range(ptr noundef null, i32 noundef 0, i32 noundef %37) #6
  br label %68

list_length.exit:                                 ; preds = %31
  %39 = getelementptr inbounds nuw i8, ptr %0, i64 368
  %40 = load ptr, ptr %39, align 8
  %41 = load i8, ptr %40, align 8
  store i8 %41, ptr %3, align 8
  %42 = getelementptr inbounds nuw i8, ptr %40, i64 2
  %43 = load i16, ptr %42, align 2
  %44 = sext i16 %43 to i32
  %45 = getelementptr inbounds nuw i8, ptr %3, i64 4
  store i32 %44, ptr %45, align 4
  %46 = load i32, ptr %6, align 8
  %47 = getelementptr inbounds nuw i8, ptr %3, i64 8
  store i32 %46, ptr %47, align 8
  %48 = load ptr, ptr %18, align 8
  %49 = getelementptr inbounds nuw i8, ptr %3, i64 16
  store ptr %48, ptr %49, align 8
  %50 = getelementptr inbounds nuw i8, ptr %40, i64 24
  %51 = load ptr, ptr %50, align 8
  %52 = getelementptr inbounds nuw i8, ptr %3, i64 24
  store ptr %51, ptr %52, align 8
  %53 = getelementptr inbounds nuw i8, ptr %40, i64 48
  %54 = load ptr, ptr %53, align 8
  %55 = getelementptr inbounds nuw i8, ptr %3, i64 32
  store ptr %54, ptr %55, align 8
  %56 = sext i16 %43 to i64
  %57 = mul nsw i64 %56, 48
  %58 = getelementptr inbounds nuw i8, ptr %33, i64 4
  %59 = load i32, ptr %58, align 4
  %60 = sext i32 %59 to i64
  %61 = mul nsw i64 %57, %60
  %62 = call ptr @palloc0(i64 noundef %61) #6
  %63 = getelementptr inbounds nuw i8, ptr %3, i64 40
  store ptr %62, ptr %63, align 8
  %64 = load ptr, ptr @CurrentMemoryContext, align 8
  %65 = getelementptr inbounds nuw i8, ptr %3, i64 48
  store ptr %64, ptr %65, align 8
  %66 = getelementptr inbounds nuw i8, ptr %3, i64 56
  call void @llvm.memset.p0.i64(ptr noundef nonnull align 8 dereferenceable(24) %66, i8 0, i64 24, i1 false)
  %67 = call ptr @get_matching_partitions(ptr noundef nonnull %3, ptr noundef nonnull %33)
  br label %68

68:                                               ; preds = %gen_partprune_steps.exit, %1, %list_length.exit, %35, %13
  %.0 = phi ptr [ %15, %13 ], [ %38, %35 ], [ %67, %list_length.exit ], [ null, %1 ], [ null, %gen_partprune_steps.exit ]
  call void @llvm.lifetime.end.p0(i64 80, ptr nonnull %3) #6
  call void @llvm.lifetime.end.p0(i64 32, ptr nonnull %2) #6
  ret ptr %.0
}